target datalayout = "e-m:e-p270:32:32-p271:32:32-p272:64:64-i64:64-f80:128-n8:16:32:64-S128"
target triple = "x86_64-pc-linux-gnu"

%struct.student = type { [21 x i8], i32, i32, i8, i8, i32, i32 }

@.str = private unnamed_addr constant [3 x i8] c"%d\00", align 1
@.str.1 = private unnamed_addr constant [17 x i8] c"%s %d%d %c %c %d\00", align 1
@.str.2 = private unnamed_addr constant [10 x i8] c"%s\0A%d\0A%d\0A\00", align 1

; Function Attrs: noinline nounwind uwtable
define dso_local i32 @main() #0 {
  %1 = alloca i32, align 4
  %2 = alloca [100 x %struct.student], align 16
  %3 = alloca %struct.student, align 4
  %4 = alloca i32, align 4
  %5 = alloca i32, align 4
  %6 = alloca i32, align 4
  %7 = alloca i32, align 4
  %8 = alloca i32, align 4
  store i32 0, i32* %1, align 4
  store i32 1, i32* %7, align 4
  store i32 0, i32* %8, align 4
  %9 = call i32 (i8*, ...) @__isoc99_scanf(i8* getelementptr inbounds ([3 x i8], [3 x i8]* @.str, i64 0, i64 0), i32* %4)
  store i32 0, i32* %5, align 4
  br label %10

10:                                               ; preds = %145, %0
  %11 = load i32, i32* %5, align 4
  %12 = load i32, i32* %4, align 4
  %13 = icmp slt i32 %11, %12
  br i1 %13, label %14, label %148

14:                                               ; preds = %10
  %15 = load i32, i32* %5, align 4
  %16 = sext i32 %15 to i64
  %17 = getelementptr inbounds [100 x %struct.student], [100 x %struct.student]* %2, i64 0, i64 %16
  %18 = getelementptr inbounds %struct.student, %struct.student* %17, i32 0, i32 0
  %19 = getelementptr inbounds [21 x i8], [21 x i8]* %18, i64 0, i64 0
  %20 = load i32, i32* %5, align 4
  %21 = sext i32 %20 to i64
  %22 = getelementptr inbounds [100 x %struct.student], [100 x %struct.student]* %2, i64 0, i64 %21
  %23 = getelementptr inbounds %struct.student, %struct.student* %22, i32 0, i32 1
  %24 = load i32, i32* %5, align 4
  %25 = sext i32 %24 to i64
  %26 = getelementptr inbounds [100 x %struct.student], [100 x %struct.student]* %2, i64 0, i64 %25
  %27 = getelementptr inbounds %struct.student, %struct.student* %26, i32 0, i32 2
  %28 = load i32, i32* %5, align 4
  %29 = sext i32 %28 to i64
  %30 = getelementptr inbounds [100 x %struct.student], [100 x %struct.student]* %2, i64 0, i64 %29
  %31 = getelementptr inbounds %struct.student, %struct.student* %30, i32 0, i32 3
  %32 = load i32, i32* %5, align 4
  %33 = sext i32 %32 to i64
  %34 = getelementptr inbounds [100 x %struct.student], [100 x %struct.student]* %2, i64 0, i64 %33
  %35 = getelementptr inbounds %struct.student, %struct.student* %34, i32 0, i32 4
  %36 = load i32, i32* %5, align 4
  %37 = sext i32 %36 to i64
  %38 = getelementptr inbounds [100 x %struct.student], [100 x %struct.student]* %2, i64 0, i64 %37
  %39 = getelementptr inbounds %struct.student, %struct.student* %38, i32 0, i32 5
  %40 = call i32 (i8*, ...) @__isoc99_scanf(i8* getelementptr inbounds ([17 x i8], [17 x i8]* @.str.1, i64 0, i64 0), i8* %19, i32* %23, i32* %27, i8* %31, i8* %35, i32* %39)
  %41 = load i32, i32* %5, align 4
  %42 = sext i32 %41 to i64
  %43 = getelementptr inbounds [100 x %struct.student], [100 x %struct.student]* %2, i64 0, i64 %42
  %44 = getelementptr inbounds %struct.student, %struct.student* %43, i32 0, i32 6
  store i32 0, i32* %44, align 4
  %45 = load i32, i32* %5, align 4
  %46 = sext i32 %45 to i64
  %47 = getelementptr inbounds [100 x %struct.student], [100 x %struct.student]* %2, i64 0, i64 %46
  %48 = getelementptr inbounds %struct.student, %struct.student* %47, i32 0, i32 1
  %49 = load i32, i32* %48, align 4
  %50 = icmp sgt i32 %49, 80
  br i1 %50, label %51, label %65

51:                                               ; preds = %14
  %52 = load i32, i32* %5, align 4
  %53 = sext i32 %52 to i64
  %54 = getelementptr inbounds [100 x %struct.student], [100 x %struct.student]* %2, i64 0, i64 %53
  %55 = getelementptr inbounds %struct.student, %struct.student* %54, i32 0, i32 5
  %56 = load i32, i32* %55, align 4
  %57 = icmp sgt i32 %56, 0
  br i1 %57, label %58, label %65

58:                                               ; preds = %51
  %59 = load i32, i32* %5, align 4
  %60 = sext i32 %59 to i64
  %61 = getelementptr inbounds [100 x %struct.student], [100 x %struct.student]* %2, i64 0, i64 %60
  %62 = getelementptr inbounds %struct.student, %struct.student* %61, i32 0, i32 6
  %63 = load i32, i32* %62, align 4
  %64 = add nsw i32 %63, 8000
  store i32 %64, i32* %62, align 4
  br label %65

65:                                               ; preds = %58, %51, %14
  %66 = load i32, i32* %5, align 4
  %67 = sext i32 %66 to i64
  %68 = getelementptr inbounds [100 x %struct.student], [100 x %struct.student]* %2, i64 0, i64 %67
  %69 = getelementptr inbounds %struct.student, %struct.student* %68, i32 0, i32 1
  %70 = load i32, i32* %69, align 4
  %71 = icmp sgt i32 %70, 85
  br i1 %71, label %72, label %86

72:                                               ; preds = %65
  %73 = load i32, i32* %5, align 4
  %74 = sext i32 %73 to i64
  %75 = getelementptr inbounds [100 x %struct.student], [100 x %struct.student]* %2, i64 0, i64 %74
  %76 = getelementptr inbounds %struct.student, %struct.student* %75, i32 0, i32 2
  %77 = load i32, i32* %76, align 4
  %78 = icmp sgt i32 %77, 80
  br i1 %78, label %79, label %86

79:                                               ; preds = %72
  %80 = load i32, i32* %5, align 4
  %81 = sext i32 %80 to i64
  %82 = getelementptr inbounds [100 x %struct.student], [100 x %struct.student]* %2, i64 0, i64 %81
  %83 = getelementptr inbounds %struct.student, %struct.student* %82, i32 0, i32 6
  %84 = load i32, i32* %83, align 4
  %85 = add nsw i32 %84, 4000
  store i32 %85, i32* %83, align 4
  br label %86

86:                                               ; preds = %79, %72, %65
  %87 = load i32, i32* %5, align 4
  %88 = sext i32 %87 to i64
  %89 = getelementptr inbounds [100 x %struct.student], [100 x %struct.student]* %2, i64 0, i64 %88
  %90 = getelementptr inbounds %struct.student, %struct.student* %89, i32 0, i32 1
  %91 = load i32, i32* %90, align 4
  %92 = icmp sgt i32 %91, 90
  br i1 %92, label %93, label %100

93:                                               ; preds = %86
  %94 = load i32, i32* %5, align 4
  %95 = sext i32 %94 to i64
  %96 = getelementptr inbounds [100 x %struct.student], [100 x %struct.student]* %2, i64 0, i64 %95
  %97 = getelementptr inbounds %struct.student, %struct.student* %96, i32 0, i32 6
  %98 = load i32, i32* %97, align 4
  %99 = add nsw i32 %98, 2000
  store i32 %99, i32* %97, align 4
  br label %100

100:                                              ; preds = %93, %86
  %101 = load i32, i32* %5, align 4
  %102 = sext i32 %101 to i64
  %103 = getelementptr inbounds [100 x %struct.student], [100 x %struct.student]* %2, i64 0, i64 %102
  %104 = getelementptr inbounds %struct.student, %struct.student* %103, i32 0, i32 1
  %105 = load i32, i32* %104, align 4
  %106 = icmp sgt i32 %105, 85
  br i1 %106, label %107, label %122

107:                                              ; preds = %100
  %108 = load i32, i32* %5, align 4
  %109 = sext i32 %108 to i64
  %110 = getelementptr inbounds [100 x %struct.student], [100 x %struct.student]* %2, i64 0, i64 %109
  %111 = getelementptr inbounds %struct.student, %struct.student* %110, i32 0, i32 4
  %112 = load i8, i8* %111, align 1
  %113 = sext i8 %112 to i32
  %114 = icmp eq i32 %113, 89
  br i1 %114, label %115, label %122

115:                                              ; preds = %107
  %116 = load i32, i32* %5, align 4
  %117 = sext i32 %116 to i64
  %118 = getelementptr inbounds [100 x %struct.student], [100 x %struct.student]* %2, i64 0, i64 %117
  %119 = getelementptr inbounds %struct.student, %struct.student* %118, i32 0, i32 6
  %120 = load i32, i32* %119, align 4
  %121 = add nsw i32 %120, 1000
  store i32 %121, i32* %119, align 4
  br label %122

122:                                              ; preds = %115, %107, %100
  %123 = load i32, i32* %5, align 4
  %124 = sext i32 %123 to i64
  %125 = getelementptr inbounds [100 x %struct.student], [100 x %struct.student]* %2, i64 0, i64 %124
  %126 = getelementptr inbounds %struct.student, %struct.student* %125, i32 0, i32 2
  %127 = load i32, i32* %126, align 4
  %128 = icmp sgt i32 %127, 80
  br i1 %128, label %129, label %144

129:                                              ; preds = %122
  %130 = load i32, i32* %5, align 4
  %131 = sext i32 %130 to i64
  %132 = getelementptr inbounds [100 x %struct.student], [100 x %struct.student]* %2, i64 0, i64 %131
  %133 = getelementptr inbounds %struct.student, %struct.student* %132, i32 0, i32 3
  %134 = load i8, i8* %133, align 4
  %135 = sext i8 %134 to i32
  %136 = icmp eq i32 %135, 89
  br i1 %136, label %137, label %144

137:                                              ; preds = %129
  %138 = load i32, i32* %5, align 4
  %139 = sext i32 %138 to i64
  %140 = getelementptr inbounds [100 x %struct.student], [100 x %struct.student]* %2, i64 0, i64 %139
  %141 = getelementptr inbounds %struct.student, %struct.student* %140, i32 0, i32 6
  %142 = load i32, i32* %141, align 4
  %143 = add nsw i32 %142, 850
  store i32 %143, i32* %141, align 4
  br label %144

144:                                              ; preds = %137, %129, %122
  br label %145

145:                                              ; preds = %144
  %146 = load i32, i32* %5, align 4
  %147 = add nsw i32 %146, 1
  store i32 %147, i32* %5, align 4
  br label %10

148:                                              ; preds = %10
  store i32 0, i32* %5, align 4
  br label %149

149:                                              ; preds = %161, %148
  %150 = load i32, i32* %5, align 4
  %151 = load i32, i32* %4, align 4
  %152 = icmp slt i32 %150, %151
  br i1 %152, label %153, label %164

153:                                              ; preds = %149
  %154 = load i32, i32* %8, align 4
  %155 = load i32, i32* %5, align 4
  %156 = sext i32 %155 to i64
  %157 = getelementptr inbounds [100 x %struct.student], [100 x %struct.student]* %2, i64 0, i64 %156
  %158 = getelementptr inbounds %struct.student, %struct.student* %157, i32 0, i32 6
  %159 = load i32, i32* %158, align 4
  %160 = add nsw i32 %154, %159
  store i32 %160, i32* %8, align 4
  br label %161

161:                                              ; preds = %153
  %162 = load i32, i32* %5, align 4
  %163 = add nsw i32 %162, 1
  store i32 %163, i32* %5, align 4
  br label %149

164:                                              ; preds = %149
  store i32 1, i32* %5, align 4
  br label %165

165:                                              ; preds = %215, %164
  %166 = load i32, i32* %5, align 4
  %167 = load i32, i32* %4, align 4
  %168 = icmp slt i32 %166, %167
  br i1 %168, label %169, label %218

169:                                              ; preds = %165
  store i32 0, i32* %6, align 4
  br label %170

170:                                              ; preds = %211, %169
  %171 = load i32, i32* %6, align 4
  %172 = load i32, i32* %4, align 4
  %173 = load i32, i32* %5, align 4
  %174 = sub nsw i32 %172, %173
  %175 = icmp slt i32 %171, %174
  br i1 %175, label %176, label %214

176:                                              ; preds = %170
  %177 = load i32, i32* %6, align 4
  %178 = sext i32 %177 to i64
  %179 = getelementptr inbounds [100 x %struct.student], [100 x %struct.student]* %2, i64 0, i64 %178
  %180 = getelementptr inbounds %struct.student, %struct.student* %179, i32 0, i32 6
  %181 = load i32, i32* %180, align 4
  %182 = load i32, i32* %6, align 4
  %183 = add nsw i32 %182, 1
  %184 = sext i32 %183 to i64
  %185 = getelementptr inbounds [100 x %struct.student], [100 x %struct.student]* %2, i64 0, i64 %184
  %186 = getelementptr inbounds %struct.student, %struct.student* %185, i32 0, i32 6
  %187 = load i32, i32* %186, align 4
  %188 = icmp slt i32 %181, %187
  br i1 %188, label %189, label %210

189:                                              ; preds = %176
  %190 = load i32, i32* %6, align 4
  %191 = sext i32 %190 to i64
  %192 = getelementptr inbounds [100 x %struct.student], [100 x %struct.student]* %2, i64 0, i64 %191
  %193 = bitcast %struct.student* %3 to i8*
  %194 = bitcast %struct.student* %192 to i8*
  call void @llvm.memcpy.p0i8.p0i8.i64(i8* align 4 %193, i8* align 4 %194, i64 44, i1 false)
  %195 = load i32, i32* %6, align 4
  %196 = sext i32 %195 to i64
  %197 = getelementptr inbounds [100 x %struct.student], [100 x %struct.student]* %2, i64 0, i64 %196
  %198 = load i32, i32* %6, align 4
  %199 = add nsw i32 %198, 1
  %200 = sext i32 %199 to i64
  %201 = getelementptr inbounds [100 x %struct.student], [100 x %struct.student]* %2, i64 0, i64 %200
  %202 = bitcast %struct.student* %197 to i8*
  %203 = bitcast %struct.student* %201 to i8*
  call void @llvm.memcpy.p0i8.p0i8.i64(i8* align 4 %202, i8* align 4 %203, i64 44, i1 false)
  %204 = load i32, i32* %6, align 4
  %205 = add nsw i32 %204, 1
  %206 = sext i32 %205 to i64
  %207 = getelementptr inbounds [100 x %struct.student], [100 x %struct.student]* %2, i64 0, i64 %206
  %208 = bitcast %struct.student* %207 to i8*
  %209 = bitcast %struct.student* %3 to i8*
  call void @llvm.memcpy.p0i8.p0i8.i64(i8* align 4 %208, i8* align 4 %209, i64 44, i1 false)
  br label %210

210:                                              ; preds = %189, %176
  br label %211

211:                                              ; preds = %210
  %212 = load i32, i32* %6, align 4
  %213 = add nsw i32 %212, 1
  store i32 %213, i32* %6, align 4
  br label %170

214:                                              ; preds = %170
  br label %215

215:                                              ; preds = %214
  %216 = load i32, i32* %5, align 4
  %217 = add nsw i32 %216, 1
  store i32 %217, i32* %5, align 4
  br label %165

218:                                              ; preds = %165
  store i32 1, i32* %5, align 4
  br label %219

219:                                              ; preds = %238, %218
  %220 = load i32, i32* %5, align 4
  %221 = load i32, i32* %4, align 4
  %222 = icmp slt i32 %220, %221
  br i1 %222, label %223, label %241

223:                                              ; preds = %219
  %224 = load i32, i32* %5, align 4
  %225 = sext i32 %224 to i64
  %226 = getelementptr inbounds [100 x %struct.student], [100 x %struct.student]* %2, i64 0, i64 %225
  %227 = getelementptr inbounds %struct.student, %struct.student* %226, i32 0, i32 6
  %228 = load i32, i32* %227, align 4
  %229 = getelementptr inbounds [100 x %struct.student], [100 x %struct.student]* %2, i64 0, i64 0
  %230 = getelementptr inbounds %struct.student, %struct.student* %229, i32 0, i32 6
  %231 = load i32, i32* %230, align 8
  %232 = icmp eq i32 %228, %231
  br i1 %232, label %233, label %236

233:                                              ; preds = %223
  %234 = load i32, i32* %7, align 4
  %235 = add nsw i32 %234, 1
  store i32 %235, i32* %7, align 4
  br label %237

236:                                              ; preds = %223
  br label %241

237:                                              ; preds = %233
  br label %238

238:                                              ; preds = %237
  %239 = load i32, i32* %5, align 4
  %240 = add nsw i32 %239, 1
  store i32 %240, i32* %5, align 4
  br label %219

241:                                              ; preds = %236, %219
  %242 = getelementptr inbounds [100 x %struct.student], [100 x %struct.student]* %2, i64 0, i64 0
  %243 = getelementptr inbounds %struct.student, %struct.student* %242, i32 0, i32 0
  %244 = getelementptr inbounds [21 x i8], [21 x i8]* %243, i64 0, i64 0
  %245 = getelementptr inbounds [100 x %struct.student], [100 x %struct.student]* %2, i64 0, i64 0
  %246 = getelementptr inbounds %struct.student, %struct.student* %245, i32 0, i32 6
  %247 = load i32, i32* %246, align 8
  %248 = load i32, i32* %8, align 4
  %249 = call i32 (i8*, ...) @printf(i8* getelementptr inbounds ([10 x i8], [10 x i8]* @.str.2, i64 0, i64 0), i8* %244, i32 %247, i32 %248)
  ret i32 0
}